ARM GAS  C:\Users\Dmytro\AppData\Local\Temp\ccSAQC5e.s 			page 1


   1              		.cpu cortex-m0
   2              		.fpu softvfp
   3              		.eabi_attribute 20, 1
   4              		.eabi_attribute 21, 1
   5              		.eabi_attribute 23, 3
   6              		.eabi_attribute 24, 1
   7              		.eabi_attribute 25, 1
   8              		.eabi_attribute 26, 1
   9              		.eabi_attribute 30, 1
  10              		.eabi_attribute 34, 0
  11              		.eabi_attribute 18, 4
  12              		.code	16
  13              		.file	"dc_motor_library.c"
  14              		.text
  15              	.Ltext0:
  16              		.cfi_sections	.debug_frame
  17              		.section	.text.set_register,"ax",%progbits
  18              		.align	2
  19              		.global	set_register
  20              		.code	16
  21              		.thumb_func
  22              		.type	set_register, %function
  23              	set_register:
  24              	.LFB34:
  25              		.file 1 ".\\dc_motor_library.c"
   1:.\dc_motor_library.c **** #include <dc_motor_library.h>
   2:.\dc_motor_library.c **** 
   3:.\dc_motor_library.c **** void set_register(int8 *motor_values)
   4:.\dc_motor_library.c **** {
  26              		.loc 1 4 0
  27              		.cfi_startproc
  28              	.LVL0:
  29 0000 38B5     		push	{r3, r4, r5, lr}
  30              		.cfi_def_cfa_offset 16
  31              		.cfi_offset 3, -16
  32              		.cfi_offset 4, -12
  33              		.cfi_offset 5, -8
  34              		.cfi_offset 14, -4
  35 0002 051C     		mov	r5, r0
  36              	.LVL1:
   5:.\dc_motor_library.c ****     int counter = 7;
  37              		.loc 1 5 0
  38 0004 0724     		mov	r4, #7
   6:.\dc_motor_library.c ****      while (counter>=0)
  39              		.loc 1 6 0
  40 0006 17E0     		b	.L2
  41              	.LVL2:
  42              	.L5:
   7:.\dc_motor_library.c ****      {
   8:.\dc_motor_library.c ****          if (!Clock_Read())
  43              		.loc 1 8 0
  44 0008 FFF7FEFF 		bl	Clock_Read
  45              	.LVL3:
  46 000c 0028     		cmp	r0, #0
  47 000e 0CD1     		bne	.L3
   9:.\dc_motor_library.c ****          {
  10:.\dc_motor_library.c ****             Data_Write(motor_values[counter]);
ARM GAS  C:\Users\Dmytro\AppData\Local\Temp\ccSAQC5e.s 			page 2


  48              		.loc 1 10 0
  49 0010 285D     		ldrb	r0, [r5, r4]
  50 0012 FFF7FEFF 		bl	Data_Write
  51              	.LVL4:
  11:.\dc_motor_library.c ****             Fix_Write(0);
  52              		.loc 1 11 0
  53 0016 0020     		mov	r0, #0
  54 0018 FFF7FEFF 		bl	Fix_Write
  55              	.LVL5:
  12:.\dc_motor_library.c ****             Clock_Write(1);
  56              		.loc 1 12 0
  57 001c 0120     		mov	r0, #1
  58 001e FFF7FEFF 		bl	Clock_Write
  59              	.LVL6:
  13:.\dc_motor_library.c ****             CyDelay(20);
  60              		.loc 1 13 0
  61 0022 1420     		mov	r0, #20
  62 0024 FFF7FEFF 		bl	CyDelay
  63              	.LVL7:
  64 0028 06E0     		b	.L2
  65              	.L3:
  14:.\dc_motor_library.c ****          }
  15:.\dc_motor_library.c ****          else
  16:.\dc_motor_library.c ****          {
  17:.\dc_motor_library.c ****             Clock_Write(0);
  66              		.loc 1 17 0
  67 002a 0020     		mov	r0, #0
  68 002c FFF7FEFF 		bl	Clock_Write
  69              	.LVL8:
  18:.\dc_motor_library.c ****             Fix_Write(1);
  70              		.loc 1 18 0
  71 0030 0120     		mov	r0, #1
  72 0032 FFF7FEFF 		bl	Fix_Write
  73              	.LVL9:
  19:.\dc_motor_library.c ****             counter--;
  74              		.loc 1 19 0
  75 0036 013C     		sub	r4, r4, #1
  76              	.LVL10:
  77              	.L2:
   6:.\dc_motor_library.c ****      {
  78              		.loc 1 6 0
  79 0038 002C     		cmp	r4, #0
  80 003a E5DA     		bge	.L5
  20:.\dc_motor_library.c ****          }
  21:.\dc_motor_library.c ****     }
  22:.\dc_motor_library.c **** }
  81              		.loc 1 22 0
  82              		@ sp needed
  83              	.LVL11:
  84              	.LVL12:
  85 003c 38BD     		pop	{r3, r4, r5, pc}
  86              		.cfi_endproc
  87              	.LFE34:
  88              		.size	set_register, .-set_register
  89 003e C046     		.section	.text.activate_motor,"ax",%progbits
  90              		.align	2
  91              		.global	activate_motor
ARM GAS  C:\Users\Dmytro\AppData\Local\Temp\ccSAQC5e.s 			page 3


  92              		.code	16
  93              		.thumb_func
  94              		.type	activate_motor, %function
  95              	activate_motor:
  96              	.LFB35:
  23:.\dc_motor_library.c **** void activate_motor(int8 **motor,short id,short mode)
  24:.\dc_motor_library.c **** {
  97              		.loc 1 24 0
  98              		.cfi_startproc
  99              	.LVL13:
 100 0000 38B5     		push	{r3, r4, r5, lr}
 101              		.cfi_def_cfa_offset 16
 102              		.cfi_offset 3, -16
 103              		.cfi_offset 4, -12
 104              		.cfi_offset 5, -8
 105              		.cfi_offset 14, -4
 106 0002 051C     		mov	r5, r0
 107 0004 141C     		mov	r4, r2
  25:.\dc_motor_library.c ****     if (id==1)
 108              		.loc 1 25 0
 109 0006 0129     		cmp	r1, #1
 110 0008 0FD1     		bne	.L7
  26:.\dc_motor_library.c ****     {
  27:.\dc_motor_library.c ****         pwm_Write(1);
 111              		.loc 1 27 0
 112 000a 0120     		mov	r0, #1
 113              	.LVL14:
 114 000c FFF7FEFF 		bl	pwm_Write
 115              	.LVL15:
  28:.\dc_motor_library.c ****         switch (mode)
 116              		.loc 1 28 0
 117 0010 002C     		cmp	r4, #0
 118 0012 02D0     		beq	.L9
 119 0014 012C     		cmp	r4, #1
 120 0016 04D0     		beq	.L10
 121 0018 3CE0     		b	.L6
 122              	.L9:
  29:.\dc_motor_library.c ****         {
  30:.\dc_motor_library.c ****             case 0: (*motor)[2] = 1;break;
 123              		.loc 1 30 0
 124 001a 2B68     		ldr	r3, [r5]
 125 001c 0122     		mov	r2, #1
 126 001e 9A70     		strb	r2, [r3, #2]
 127 0020 38E0     		b	.L6
 128              	.L10:
  31:.\dc_motor_library.c ****             case 1: (*motor)[3] = 1;break;
 129              		.loc 1 31 0
 130 0022 2B68     		ldr	r3, [r5]
 131 0024 0122     		mov	r2, #1
 132 0026 DA70     		strb	r2, [r3, #3]
 133 0028 34E0     		b	.L6
 134              	.LVL16:
 135              	.L7:
  32:.\dc_motor_library.c ****         }
  33:.\dc_motor_library.c ****     }
  34:.\dc_motor_library.c ****     else if (id ==2)
 136              		.loc 1 34 0
ARM GAS  C:\Users\Dmytro\AppData\Local\Temp\ccSAQC5e.s 			page 4


 137 002a 0229     		cmp	r1, #2
 138 002c 0FD1     		bne	.L11
  35:.\dc_motor_library.c ****     {
  36:.\dc_motor_library.c ****         pwm2_Write(1);
 139              		.loc 1 36 0
 140 002e 0120     		mov	r0, #1
 141              	.LVL17:
 142 0030 FFF7FEFF 		bl	pwm2_Write
 143              	.LVL18:
  37:.\dc_motor_library.c ****         switch (mode)
 144              		.loc 1 37 0
 145 0034 002C     		cmp	r4, #0
 146 0036 02D0     		beq	.L12
 147 0038 012C     		cmp	r4, #1
 148 003a 04D0     		beq	.L13
 149 003c 2AE0     		b	.L6
 150              	.L12:
  38:.\dc_motor_library.c ****         {   
  39:.\dc_motor_library.c ****             case 0: (*motor)[1] = 1;break;
 151              		.loc 1 39 0
 152 003e 2B68     		ldr	r3, [r5]
 153 0040 0122     		mov	r2, #1
 154 0042 5A70     		strb	r2, [r3, #1]
 155 0044 26E0     		b	.L6
 156              	.L13:
  40:.\dc_motor_library.c ****             case 1: (*motor)[4] = 1;break;
 157              		.loc 1 40 0
 158 0046 2B68     		ldr	r3, [r5]
 159 0048 0122     		mov	r2, #1
 160 004a 1A71     		strb	r2, [r3, #4]
 161 004c 22E0     		b	.L6
 162              	.LVL19:
 163              	.L11:
  41:.\dc_motor_library.c ****         }
  42:.\dc_motor_library.c ****     }
  43:.\dc_motor_library.c ****     else if (id ==3)
 164              		.loc 1 43 0
 165 004e 0329     		cmp	r1, #3
 166 0050 0FD1     		bne	.L14
  44:.\dc_motor_library.c ****     {
  45:.\dc_motor_library.c ****         pwm3_Write(1);
 167              		.loc 1 45 0
 168 0052 0120     		mov	r0, #1
 169              	.LVL20:
 170 0054 FFF7FEFF 		bl	pwm3_Write
 171              	.LVL21:
  46:.\dc_motor_library.c ****         switch (mode)
 172              		.loc 1 46 0
 173 0058 002C     		cmp	r4, #0
 174 005a 02D0     		beq	.L15
 175 005c 012C     		cmp	r4, #1
 176 005e 04D0     		beq	.L16
 177 0060 18E0     		b	.L6
 178              	.L15:
  47:.\dc_motor_library.c ****         {
  48:.\dc_motor_library.c ****             case 0: (*motor)[0] = 1;break;
 179              		.loc 1 48 0
ARM GAS  C:\Users\Dmytro\AppData\Local\Temp\ccSAQC5e.s 			page 5


 180 0062 2B68     		ldr	r3, [r5]
 181 0064 0122     		mov	r2, #1
 182 0066 1A70     		strb	r2, [r3]
 183 0068 14E0     		b	.L6
 184              	.L16:
  49:.\dc_motor_library.c ****             case 1: (*motor)[6] = 1;break;
 185              		.loc 1 49 0
 186 006a 2B68     		ldr	r3, [r5]
 187 006c 0122     		mov	r2, #1
 188 006e 9A71     		strb	r2, [r3, #6]
 189 0070 10E0     		b	.L6
 190              	.LVL22:
 191              	.L14:
  50:.\dc_motor_library.c ****         }
  51:.\dc_motor_library.c ****     }
  52:.\dc_motor_library.c ****     else if (id==4)
 192              		.loc 1 52 0
 193 0072 0429     		cmp	r1, #4
 194 0074 0ED1     		bne	.L6
  53:.\dc_motor_library.c ****     {
  54:.\dc_motor_library.c ****         pwm4_Write(1);
 195              		.loc 1 54 0
 196 0076 0120     		mov	r0, #1
 197              	.LVL23:
 198 0078 FFF7FEFF 		bl	pwm4_Write
 199              	.LVL24:
  55:.\dc_motor_library.c ****         switch(mode)
 200              		.loc 1 55 0
 201 007c 002C     		cmp	r4, #0
 202 007e 02D0     		beq	.L17
 203 0080 012C     		cmp	r4, #1
 204 0082 04D0     		beq	.L18
 205 0084 06E0     		b	.L6
 206              	.L17:
  56:.\dc_motor_library.c ****         {
  57:.\dc_motor_library.c ****             case 0: (*motor)[5] = 1;break;
 207              		.loc 1 57 0
 208 0086 2B68     		ldr	r3, [r5]
 209 0088 0122     		mov	r2, #1
 210 008a 5A71     		strb	r2, [r3, #5]
 211 008c 02E0     		b	.L6
 212              	.L18:
  58:.\dc_motor_library.c ****             case 1: (*motor)[7] = 1;break;
 213              		.loc 1 58 0
 214 008e 2B68     		ldr	r3, [r5]
 215 0090 0122     		mov	r2, #1
 216 0092 DA71     		strb	r2, [r3, #7]
 217              	.L6:
  59:.\dc_motor_library.c ****         }
  60:.\dc_motor_library.c ****     }
  61:.\dc_motor_library.c ****     return;
  62:.\dc_motor_library.c **** }
 218              		.loc 1 62 0
 219              		@ sp needed
 220              	.LVL25:
 221 0094 38BD     		pop	{r3, r4, r5, pc}
 222              		.cfi_endproc
ARM GAS  C:\Users\Dmytro\AppData\Local\Temp\ccSAQC5e.s 			page 6


 223              	.LFE35:
 224              		.size	activate_motor, .-activate_motor
 225 0096 C046     		.section	.text.clear_motor_register,"ax",%progbits
 226              		.align	2
 227              		.global	clear_motor_register
 228              		.code	16
 229              		.thumb_func
 230              		.type	clear_motor_register, %function
 231              	clear_motor_register:
 232              	.LFB36:
  63:.\dc_motor_library.c **** 
  64:.\dc_motor_library.c **** void clear_motor_register(int8 *motor)
  65:.\dc_motor_library.c **** {
 233              		.loc 1 65 0
 234              		.cfi_startproc
 235              	.LVL26:
 236 0000 38B5     		push	{r3, r4, r5, lr}
 237              		.cfi_def_cfa_offset 16
 238              		.cfi_offset 3, -16
 239              		.cfi_offset 4, -12
 240              		.cfi_offset 5, -8
 241              		.cfi_offset 14, -4
 242 0002 051C     		mov	r5, r0
 243              	.LVL27:
  66:.\dc_motor_library.c ****     int8 counter = 7;
 244              		.loc 1 66 0
 245 0004 0724     		mov	r4, #7
  67:.\dc_motor_library.c ****      while (counter!=0)
 246              		.loc 1 67 0
 247 0006 19E0     		b	.L20
 248              	.LVL28:
 249              	.L23:
  68:.\dc_motor_library.c ****      {
  69:.\dc_motor_library.c ****          if (!Clock_Read())
 250              		.loc 1 69 0
 251 0008 FFF7FEFF 		bl	Clock_Read
 252              	.LVL29:
 253 000c 0028     		cmp	r0, #0
 254 000e 0DD1     		bne	.L21
  70:.\dc_motor_library.c ****          {
  71:.\dc_motor_library.c ****             Data_Write(motor[counter]);
 255              		.loc 1 71 0
 256 0010 63B2     		sxtb	r3, r4
 257 0012 E85C     		ldrb	r0, [r5, r3]
 258 0014 FFF7FEFF 		bl	Data_Write
 259              	.LVL30:
  72:.\dc_motor_library.c ****             Fix_Write(0);
 260              		.loc 1 72 0
 261 0018 0020     		mov	r0, #0
 262 001a FFF7FEFF 		bl	Fix_Write
 263              	.LVL31:
  73:.\dc_motor_library.c ****             Clock_Write(1);
 264              		.loc 1 73 0
 265 001e 0120     		mov	r0, #1
 266 0020 FFF7FEFF 		bl	Clock_Write
 267              	.LVL32:
  74:.\dc_motor_library.c ****             CyDelay(20);
ARM GAS  C:\Users\Dmytro\AppData\Local\Temp\ccSAQC5e.s 			page 7


 268              		.loc 1 74 0
 269 0024 1420     		mov	r0, #20
 270 0026 FFF7FEFF 		bl	CyDelay
 271              	.LVL33:
 272 002a 07E0     		b	.L20
 273              	.L21:
  75:.\dc_motor_library.c ****          }
  76:.\dc_motor_library.c ****          else
  77:.\dc_motor_library.c ****          {
  78:.\dc_motor_library.c ****             Clock_Write(0);
 274              		.loc 1 78 0
 275 002c 0020     		mov	r0, #0
 276 002e FFF7FEFF 		bl	Clock_Write
 277              	.LVL34:
  79:.\dc_motor_library.c ****             Fix_Write(1);
 278              		.loc 1 79 0
 279 0032 0120     		mov	r0, #1
 280 0034 FFF7FEFF 		bl	Fix_Write
 281              	.LVL35:
  80:.\dc_motor_library.c ****             counter--;
 282              		.loc 1 80 0
 283 0038 013C     		sub	r4, r4, #1
 284              	.LVL36:
 285 003a E4B2     		uxtb	r4, r4
 286              	.LVL37:
 287              	.L20:
  67:.\dc_motor_library.c ****      {
 288              		.loc 1 67 0
 289 003c 002C     		cmp	r4, #0
 290 003e E3D1     		bne	.L23
  81:.\dc_motor_library.c ****          }
  82:.\dc_motor_library.c ****     }
  83:.\dc_motor_library.c ****     return;
  84:.\dc_motor_library.c **** }
 291              		.loc 1 84 0
 292              		@ sp needed
 293              	.LVL38:
 294              	.LVL39:
 295 0040 38BD     		pop	{r3, r4, r5, pc}
 296              		.cfi_endproc
 297              	.LFE36:
 298              		.size	clear_motor_register, .-clear_motor_register
 299              		.text
 300              	.Letext0:
 301              		.file 2 "Generated_Source\\PSoC4/cytypes.h"
 302              		.file 3 "Generated_Source\\PSoC4/Data.h"
 303              		.file 4 "Generated_Source\\PSoC4/Fix.h"
 304              		.file 5 "Generated_Source\\PSoC4/Clock.h"
 305              		.file 6 "Generated_Source\\PSoC4/CyLib.h"
 306              		.file 7 "Generated_Source\\PSoC4/pwm.h"
 307              		.file 8 "Generated_Source\\PSoC4/pwm2.h"
 308              		.file 9 "Generated_Source\\PSoC4/pwm3.h"
 309              		.file 10 "Generated_Source\\PSoC4/pwm4.h"